target datalayout = "e-m:e-p270:32:32-p271:32:32-p272:64:64-i64:64-i128:128-f80:128-n8:16:32:64-S128"
target triple = "x86_64-pc-linux-gnu"

%struct.AVRational = type { i32, i32 }

; Function Attrs: nounwind uwtable
define internal i64 @double_to_rational(double noundef %0) #0 {
  %2 = alloca %struct.AVRational, align 4
  %3 = alloca double, align 8
  %4 = alloca %struct.AVRational, align 4
  store double %0, ptr %3, align 8, !tbaa !53
  %5 = load double, ptr %3, align 8, !tbaa !53
  %6 = call i64 @av_d2q(double noundef %5, i32 noundef 16777216) #13
  store i64 %6, ptr %2, align 4
  %7 = getelementptr inbounds nuw %struct.AVRational, ptr %2, i32 0, i32 0
  %8 = load i32, ptr %7, align 4, !tbaa !48
  %9 = icmp ne i32 %8, 0
  br i1 %9, label %10, label %14

10:                                               ; preds = %1
  %11 = getelementptr inbounds nuw %struct.AVRational, ptr %2, i32 0, i32 1
  %12 = load i32, ptr %11, align 4, !tbaa !46
  %13 = icmp ne i32 %12, 0
  br i1 %13, label %20, label %14

14:                                               ; preds = %10, %1
  %15 = load double, ptr %3, align 8, !tbaa !53
  %16 = fcmp nsz une double %15, 0.000000e+00
  br i1 %16, label %17, label %20

17:                                               ; preds = %14
  call void @llvm.lifetime.start.p0(i64 8, ptr %4) #11
  %18 = load double, ptr %3, align 8, !tbaa !53
  %19 = call i64 @av_d2q(double noundef %18, i32 noundef 2147483647) #13
  store i64 %19, ptr %4, align 4
  call void @llvm.memcpy.p0.p0.i64(ptr align 4 %2, ptr align 4 %4, i64 8, i1 false), !tbaa.struct !79
  call void @llvm.lifetime.end.p0(i64 8, ptr %4) #11
  br label %20

20:                                               ; preds = %17, %14, %10
  %21 = load i64, ptr %2, align 4
  ret i64 %21
}