; Function Attrs: mustprogress nofree nosync nounwind willreturn memory(none) uwtable
define internal fastcc i64 @double_to_rational(double noundef %0) unnamed_addr #5 {
  %2 = tail call i64 @av_d2q(double noundef %0, i32 noundef 16777216) #20
  %3 = and i64 %2, 4294967295
  %4 = icmp eq i64 %3, 0
  %5 = icmp ult i64 %2, 4294967296
  %or.cond.not13 = or i1 %5, %4
  %6 = fcmp nsz une double %0, 0.000000e+00
  %or.cond4 = and i1 %6, %or.cond.not13
  br i1 %or.cond4, label %7, label %9

7:                                                ; preds = %1
  %8 = tail call i64 @av_d2q(double noundef %0, i32 noundef 2147483647) #20
  br label %9

9:                                                ; preds = %1, %7
  %.sroa.4.0.in.in = phi i64 [ %8, %7 ], [ %2, %1 ]
  ret i64 %.sroa.4.0.in.in
}